; Function Attrs: mustprogress nofree norecurse nosync nounwind willreturn memory(none) uwtable
define dso_local i64 @lpEstimateBytesRepeatedInteger(i64 noundef %0, i64 noundef %1) local_unnamed_addr #11 {
  %or.cond.i.i = icmp ult i64 %0, 128
  br i1 %or.cond.i.i, label %lpEntrySizeInteger.exit, label %3

3:                                                ; preds = %2
  %4 = add i64 %0, 4096
  %or.cond3.i.i = icmp ult i64 %4, 8192
  br i1 %or.cond3.i.i, label %lpEntrySizeInteger.exit, label %5

5:                                                ; preds = %3
  %6 = add i64 %0, 32768
  %or.cond5.i.i = icmp ult i64 %6, 65536
  br i1 %or.cond5.i.i, label %lpEntrySizeInteger.exit, label %7

7:                                                ; preds = %5
  %8 = add i64 %0, 8388608
  %or.cond7.i.i = icmp ult i64 %8, 16777216
  br i1 %or.cond7.i.i, label %lpEntrySizeInteger.exit, label %9

9:                                                ; preds = %7
  %10 = add i64 %0, 2147483648
  %or.cond9.i.i = icmp ult i64 %10, 4294967296
  %11 = select i1 %or.cond9.i.i, i64 6, i64 10
  br label %lpEntrySizeInteger.exit

lpEntrySizeInteger.exit:                          ; preds = %2, %3, %5, %7, %9
  %.sink.i.i = phi i64 [ 2, %2 ], [ 3, %3 ], [ 4, %5 ], [ 5, %7 ], [ %11, %9 ]
  %12 = mul i64 %.sink.i.i, %1
  %13 = add i64 %12, 7
  ret i64 %13
}